(dp0
S'METTS MARK'
p1
(dp2
S'salary'
p3
I365788
sS'to_messages'
p4
I807
sS'deferral_payments'
p5
S'NaN'
p6
sS'total_payments'
p7
I1061827
sS'exercised_stock_options'
p8
cnumpy.core.multiarray
scalar
p9
(cnumpy
dtype
p10
(S'f8'
p11
I0
I1
tp12
Rp13
(I3
S'<'
p14
NNNI-1
I-1
I0
tp15
bS'\x00\x00\x00\x00\x99\xca3A'
p16
tp17
Rp18
sS'bonus'
p19
I600000
sS'restricted_stock'
p20
I585062
sS'shared_receipt_with_poi'
p21
I702
sS'restricted_stock_deferred'
p22
g6
sS'total_stock_value'
p23
I585062
sS'expenses'
p24
I94299
sS'loan_advances'
p25
g6
sS'from_messages'
p26
I29
sS'other'
p27
I1740
sS'from_this_person_to_poi'
p28
I1
sS'poi'
p29
I00
sS'director_fees'
p30
g6
sS'deferred_income'
p31
g6
sS'long_term_incentive'
p32
g6
sS'email_address'
p33
S'mark.metts@enron.com'
p34
sS'from_poi_to_this_person'
p35
I38
ssS'BAXTER JOHN C'
p36
(dp37
g3
I267102
sg4
g6
sg5
I1295738
sg7
I5634343
sg8
I6680544
sg19
I1200000
sg20
I3942714
sg21
g6
sg22
g6
sg23
I10623258
sg24
I11200
sg25
g6
sg26
g6
sg27
I2660303
sg28
g6
sg29
I00
sg30
g6
sg31
I-1386055
sg32
I1586055
sg33
g6
sg35
g6
ssS'ELLIOTT STEVEN'
p38
(dp39
g3
I170941
sg4
g6
sg5
g6
sg7
I211725
sg8
I4890344
sg19
I350000
sg20
I1788391
sg21
g6
sg22
g6
sg23
I6678735
sg24
I78552
sg25
g6
sg26
g6
sg27
I12961
sg28
g6
sg29
I00
sg30
g6
sg31
I-400729
sg32
g6
sg33
S'steven.elliott@enron.com'
p40
sg35
g6
ssS'CORDES WILLIAM R'
p41
(dp42
g3
g9
(g13
S'\x00\x00\x00\x00\xa8\x95\x0fA'
p43
tp44
Rp45
sg4
I764
sg5
g6
sg7
g6
sg8
I651850
sg19
g9
(g13
S'\x00\x00\x00\x00`\xe3&A'
p46
tp47
Rp48
sg20
I386335
sg21
I58
sg22
g6
sg23
I1038185
sg24
g6
sg25
g6
sg26
I12
sg27
g6
sg28
I0
sg29
I00
sg30
g6
sg31
g6
sg32
g6
sg33
S'bill.cordes@enron.com'
p49
sg35
I10
ssS'HANNON KEVIN P'
p50
(dp51
g3
I243293
sg4
I1045
sg5
g6
sg7
I288682
sg8
I5538001
sg19
I1500000
sg20
I853064
sg21
I1035
sg22
g6
sg23
I6391065
sg24
I34039
sg25
g6
sg26
I32
sg27
I11350
sg28
I21
sg29
I01
sg30
g6
sg31
I-3117011
sg32
I1617011
sg33
S'kevin.hannon@enron.com'
p52
sg35
I32
ssS'MORDAUNT KRISTINA M'
p53
(dp54
g3
I267093
sg4
g6
sg5
g6
sg7
I628522
sg8
g18
sg19
I325000
sg20
I208510
sg21
g6
sg22
g6
sg23
I208510
sg24
I35018
sg25
g6
sg26
g6
sg27
I1411
sg28
g6
sg29
I00
sg30
g6
sg31
g6
sg32
g6
sg33
S'kristina.mordaunt@enron.com'
p55
sg35
g6
ssS'MEYER ROCKFORD G'
p56
(dp57
g3
g45
sg4
I232
sg5
I1848227
sg7
I1848227
sg8
I493489
sg19
g48
sg20
I462384
sg21
I22
sg22
g6
sg23
I955873
sg24
g6
sg25
g6
sg26
I28
sg27
g6
sg28
I0
sg29
I00
sg30
g6
sg31
g6
sg32
g6
sg33
S'rockford.meyer@enron.com'
p58
sg35
I0
ssS'MCMAHON JEFFREY'
p59
(dp60
g3
I370448
sg4
I2355
sg5
g6
sg7
I4099771
sg8
I1104054
sg19
I2600000
sg20
I558801
sg21
I2228
sg22
g6
sg23
I1662855
sg24
I137108
sg25
g6
sg26
I48
sg27
I297353
sg28
I26
sg29
I00
sg30
g6
sg31
g6
sg32
I694862
sg33
S'jeffrey.mcmahon@enron.com'
p61
sg35
I58
ssS'HORTON STANLEY C'
p62
(dp63
g3
g45
sg4
I2350
sg5
I3131860
sg7
I3131860
sg8
I5210569
sg19
g48
sg20
I2046079
sg21
I1074
sg22
g6
sg23
I7256648
sg24
g6
sg25
g6
sg26
I1073
sg27
g6
sg28
I15
sg29
I00
sg30
g6
sg31
g6
sg32
g6
sg33
S'stanley.horton@enron.com'
p64
sg35
I44
ssS'PIPER GREGORY F'
p65
(dp66
g3
I197091
sg4
I1238
sg5
I1130036
sg7
I1737629
sg8
I880290
sg19
I400000
sg20
I409554
sg21
I742
sg22
I-409554
sg23
I880290
sg24
I43057
sg25
g6
sg26
I222
sg27
I778
sg28
I48
sg29
I00
sg30
g6
sg31
I-33333
sg32
g6
sg33
S'greg.piper@enron.com'
p67
sg35
I61
ssS'HUMPHREY GENE E'
p68
(dp69
g3
I130724
sg4
I128
sg5
I2964506
sg7
I3100224
sg8
I2282768
sg19
g48
sg20
g6
sg21
I119
sg22
g6
sg23
I2282768
sg24
I4994
sg25
g6
sg26
I17
sg27
g6
sg28
I17
sg29
I00
sg30
g6
sg31
g6
sg32
g6
sg33
S'gene.humphrey@enron.com'
p70
sg35
I10
ssS'UMANOFF ADAM S'
p71
(dp72
g3
I288589
sg4
I111
sg5
g6
sg7
I1130461
sg8
g18
sg19
I788750
sg20
g6
sg21
I41
sg22
g6
sg23
g6
sg24
I53122
sg25
g6
sg26
I18
sg27
g6
sg28
I0
sg29
I00
sg30
g6
sg31
g6
sg32
g6
sg33
S'adam.umanoff@enron.com'
p73
sg35
I12
ssS'BLACHMAN JEREMY M'
p74
(dp75
g3
I248546
sg4
I2475
sg5
g6
sg7
I2014835
sg8
I765313
sg19
I850000
sg20
I189041
sg21
I2326
sg22
g6
sg23
I954354
sg24
I84208
sg25
g6
sg26
I14
sg27
I272
sg28
I2
sg29
I00
sg30
g6
sg31
g6
sg32
I831809
sg33
S'jeremy.blachman@enron.com'
p76
sg35
I25
ssS'SUNDE MARTIN'
p77
(dp78
g3
I257486
sg4
I2647
sg5
g6
sg7
I1545059
sg8
g18
sg19
I700000
sg20
I698920
sg21
I2565
sg22
g6
sg23
I698920
sg24
g6
sg25
g6
sg26
I38
sg27
I111122
sg28
I13
sg29
I00
sg30
g6
sg31
g6
sg32
I476451
sg33
S'marty.sunde@enron.com'
p79
sg35
I37
ssS'GIBBS DANA R'
p80
(dp81
g3
g45
sg4
I169
sg5
I504610
sg7
I966522
sg8
I2218275
sg19
g48
sg20
g6
sg21
I23
sg22
g6
sg23
I2218275
sg24
g6
sg25
g6
sg26
I12
sg27
g6
sg28
I0
sg29
I00
sg30
g6
sg31
g6
sg32
I461912
sg33
S'dana.gibbs@enron.com'
p82
sg35
I0
ssS'LOWRY CHARLES P'
p83
(dp84
g3
g45
sg4
g6
sg5
g6
sg7
g6
sg8
I372205
sg19
g48
sg20
I153686
sg21
g6
sg22
I-153686
sg23
I372205
sg24
g6
sg25
g6
sg26
g6
sg27
g6
sg28
g6
sg29
I00
sg30
g6
sg31
g6
sg32
g6
sg33
g6
sg35
g6
ssS'COLWELL WESLEY'
p85
(dp86
g3
I288542
sg4
I1758
sg5
I27610
sg7
I1490344
sg8
g18
sg19
I1200000
sg20
I698242
sg21
I1132
sg22
g6
sg23
I698242
sg24
I16514
sg25
g6
sg26
I40
sg27
I101740
sg28
I11
sg29
I01
sg30
g6
sg31
I-144062
sg32
g6
sg33
S'wes.colwell@enron.com'
p87
sg35
I240
ssS'MULLER MARK S'
p88
(dp89
g3
I251654
sg4
I136
sg5
I842924
sg7
I3202070
sg8
I1056320
sg19
I1100000
sg20
I360528
sg21
I114
sg22
g6
sg23
I1416848
sg24
g6
sg25
g6
sg26
I16
sg27
I947
sg28
I0
sg29
I00
sg30
g6
sg31
I-719000
sg32
I1725545
sg33
S's..muller@enron.com'
p90
sg35
I12
ssS'JACKSON CHARLENE R'
p91
(dp92
g3
I288558
sg4
I258
sg5
g6
sg7
I551174
sg8
I185063
sg19
I250000
sg20
I540672
sg21
I117
sg22
g6
sg23
I725735
sg24
I10181
sg25
g6
sg26
I56
sg27
I2435
sg28
I19
sg29
I00
sg30
g6
sg31
g6
sg32
g6
sg33
S'charlene.jackson@enron.com'
p93
sg35
I25
ssS'WESTFAHL RICHARD K'
p94
(dp95
g3
I63744
sg4
g6
sg5
g6
sg7
I762135
sg8
g18
sg19
g48
sg20
I384930
sg21
g6
sg22
g6
sg23
I384930
sg24
I51870
sg25
g6
sg26
g6
sg27
I401130
sg28
g6
sg29
I00
sg30
g6
sg31
I-10800
sg32
I256191
sg33
S'dick.westfahl@enron.com'
p96
sg35
g6
ssS'WALTERS GARETH W'
p97
(dp98
g3
g45
sg4
g6
sg5
I53625
sg7
I87410
sg8
I1030329
sg19
g48
sg20
g6
sg21
g6
sg22
g6
sg23
I1030329
sg24
I33785
sg25
g6
sg26
g6
sg27
g6
sg28
g6
sg29
I00
sg30
g6
sg31
g6
sg32
g6
sg33
g6
sg35
g6
ssS'WALLS JR ROBERT H'
p99
(dp100
g3
I357091
sg4
I671
sg5
g6
sg7
I1798780
sg8
I4346544
sg19
I850000
sg20
I1552453
sg21
I215
sg22
g6
sg23
I5898997
sg24
I50936
sg25
g6
sg26
I146
sg27
I2
sg28
I0
sg29
I00
sg30
g6
sg31
g6
sg32
I540751
sg33
S'rob.walls@enron.com'
p101
sg35
I17
ssS'KITCHEN LOUISE'
p102
(dp103
g3
I271442
sg4
I8305
sg5
g6
sg7
I3471141
sg8
I81042
sg19
I3100000
sg20
I466101
sg21
I3669
sg22
g6
sg23
I547143
sg24
I5774
sg25
g6
sg26
I1728
sg27
I93925
sg28
I194
sg29
I00
sg30
g6
sg31
g6
sg32
g6
sg33
S'louise.kitchen@enron.com'
p104
sg35
I251
ssS'CHAN RONNIE'
p105
(dp106
g3
g45
sg4
g6
sg5
g6
sg7
g6
sg8
g18
sg19
g48
sg20
I32460
sg21
g6
sg22
I-32460
sg23
g6
sg24
g6
sg25
g6
sg26
g6
sg27
g6
sg28
g6
sg29
I00
sg30
I98784
sg31
I-98784
sg32
g6
sg33
g6
sg35
g6
ssS'BELFER ROBERT'
p107
(dp108
g3
g45
sg4
g6
sg5
I-102500
sg7
I102500
sg8
I3285
sg19
g48
sg20
g6
sg21
g6
sg22
I44093
sg23
I-44093
sg24
g6
sg25
g6
sg26
g6
sg27
g6
sg28
g6
sg29
I00
sg30
I3285
sg31
g6
sg32
g6
sg33
g6
sg35
g6
ssS'SHANKMAN JEFFREY A'
p109
(dp110
g3
I304110
sg4
I3221
sg5
g6
sg7
I3038702
sg8
I1441898
sg19
I2000000
sg20
I630137
sg21
I1730
sg22
g6
sg23
I2072035
sg24
I178979
sg25
g6
sg26
I2681
sg27
I1191
sg28
I83
sg29
I00
sg30
g6
sg31
g6
sg32
I554422
sg33
S'jeffrey.shankman@enron.com'
p111
sg35
I94
ssS'WODRASKA JOHN'
p112
(dp113
g3
g45
sg4
g6
sg5
g6
sg7
I189583
sg8
g18
sg19
g48
sg20
g6
sg21
g6
sg22
g6
sg23
g6
sg24
g6
sg25
g6
sg26
g6
sg27
I189583
sg28
g6
sg29
I00
sg30
g6
sg31
g6
sg32
g6
sg33
S'john.wodraska@enron.com'
p114
sg35
g6
ssS'BERGSIEKER RICHARD P'
p115
(dp116
g3
I187922
sg4
I383
sg5
g6
sg7
I618850
sg8
g18
sg19
I250000
sg20
I659249
sg21
I233
sg22
g6
sg23
I659249
sg24
I59175
sg25
g6
sg26
I59
sg27
I427316
sg28
I0
sg29
I00
sg30
g6
sg31
I-485813
sg32
I180250
sg33
S'rick.bergsieker@enron.com'
p117
sg35
I4
ssS'URQUHART JOHN A'
p118
(dp119
g3
g45
sg4
g6
sg5
g6
sg7
I228656
sg8
g18
sg19
g48
sg20
g6
sg21
g6
sg22
g6
sg23
g6
sg24
I228656
sg25
g6
sg26
g6
sg27
g6
sg28
g6
sg29
I00
sg30
I36666
sg31
I-36666
sg32
g6
sg33
g6
sg35
g6
ssS'BIBI PHILIPPE A'
p120
(dp121
g3
I213625
sg4
I1607
sg5
g6
sg7
I2047593
sg8
I1465734
sg19
I1000000
sg20
I378082
sg21
I1336
sg22
g6
sg23
I1843816
sg24
I38559
sg25
g6
sg26
I40
sg27
I425688
sg28
I8
sg29
I00
sg30
g6
sg31
g6
sg32
I369721
sg33
S'philippe.bibi@enron.com'
p122
sg35
I23
ssS'RIEKER PAULA H'
p123
(dp124
g3
I249201
sg4
I1328
sg5
I214678
sg7
I1099100
sg8
I1635238
sg19
I700000
sg20
I283649
sg21
I1258
sg22
g6
sg23
I1918887
sg24
I33271
sg25
g6
sg26
I82
sg27
I1950
sg28
I48
sg29
I01
sg30
g6
sg31
I-100000
sg32
g6
sg33
S'paula.rieker@enron.com'
p125
sg35
I35
ssS'WHALEY DAVID A'
p126
(dp127
g3
g45
sg4
g6
sg5
g6
sg7
g6
sg8
I98718
sg19
g48
sg20
g6
sg21
g6
sg22
g6
sg23
I98718
sg24
g6
sg25
g6
sg26
g6
sg27
g6
sg28
g6
sg29
I00
sg30
g6
sg31
g6
sg32
g6
sg33
g6
sg35
g6
ssS'BECK SALLY W'
p128
(dp129
g3
I231330
sg4
I7315
sg5
g6
sg7
I969068
sg8
g18
sg19
I700000
sg20
I126027
sg21
I2639
sg22
g6
sg23
I126027
sg24
I37172
sg25
g6
sg26
I4343
sg27
I566
sg28
I386
sg29
I00
sg30
g6
sg31
g6
sg32
g6
sg33
S'sally.beck@enron.com'
p130
sg35
I144
ssS'HAUG DAVID L'
p131
(dp132
g3
g45
sg4
I573
sg5
g6
sg7
I475
sg8
g18
sg19
g48
sg20
I2217299
sg21
I471
sg22
g6
sg23
I2217299
sg24
I475
sg25
g6
sg26
I19
sg27
g6
sg28
I7
sg29
I00
sg30
g6
sg31
g6
sg32
g6
sg33
S'david.haug@enron.com'
p133
sg35
I4
ssS'ECHOLS JOHN B'
p134
(dp135
g3
I182245
sg4
g6
sg5
g6
sg7
I2692324
sg8
I601438
sg19
I200000
sg20
I407503
sg21
g6
sg22
g6
sg23
I1008941
sg24
I21530
sg25
g6
sg26
g6
sg27
I53775
sg28
g6
sg29
I00
sg30
g6
sg31
g6
sg32
I2234774
sg33
S'john.echols@enron.com'
p136
sg35
g6
ssS'MENDELSOHN JOHN'
p137
(dp138
g3
g45
sg4
g6
sg5
g6
sg7
I148
sg8
g18
sg19
g48
sg20
g6
sg21
g6
sg22
g6
sg23
g6
sg24
I148
sg25
g6
sg26
g6
sg27
g6
sg28
g6
sg29
I00
sg30
I103750
sg31
I-103750
sg32
g6
sg33
g6
sg35
g6
ssS'HICKERSON GARY J'
p139
(dp140
g3
I211788
sg4
I1320
sg5
g6
sg7
I2081796
sg8
g18
sg19
I1700000
sg20
I441096
sg21
I900
sg22
g6
sg23
I441096
sg24
I98849
sg25
g6
sg26
I27
sg27
I1936
sg28
I1
sg29
I00
sg30
g6
sg31
g6
sg32
I69223
sg33
S'gary.hickerson@enron.com'
p141
sg35
I40
ssS'CLINE KENNETH W'
p142
(dp143
g3
g45
sg4
g6
sg5
g6
sg7
g6
sg8
g18
sg19
g48
sg20
I662086
sg21
g6
sg22
I-472568
sg23
I189518
sg24
g6
sg25
g6
sg26
g6
sg27
g6
sg28
g6
sg29
I00
sg30
g6
sg31
g6
sg32
g6
sg33
g6
sg35
g6
ssS'LEWIS RICHARD'
p144
(dp145
g3
g45
sg4
I952
sg5
g6
sg7
g6
sg8
I850477
sg19
g48
sg20
g6
sg21
I739
sg22
g6
sg23
I850477
sg24
g6
sg25
g6
sg26
I26
sg27
g6
sg28
I0
sg29
I00
sg30
g6
sg31
g6
sg32
g6
sg33
S'richard.lewis@enron.com'
p146
sg35
I10
ssS'HAYES ROBERT E'
p147
(dp148
g3
g45
sg4
I504
sg5
I7961
sg7
I7961
sg8
g18
sg19
g48
sg20
I151418
sg21
I50
sg22
g6
sg23
I151418
sg24
g6
sg25
g6
sg26
I12
sg27
g6
sg28
I0
sg29
I00
sg30
g6
sg31
g6
sg32
g6
sg33
S'robert.hayes@enron.com'
p149
sg35
I16
ssS'MCCARTY DANNY J'
p150
(dp151
g3
g45
sg4
I1433
sg5
g6
sg7
g6
sg8
I664375
sg19
g48
sg20
I94556
sg21
I508
sg22
g6
sg23
I758931
sg24
g6
sg25
g6
sg26
I215
sg27
g6
sg28
I2
sg29
I00
sg30
g6
sg31
g6
sg32
g6
sg33
S'danny.mccarty@enron.com'
p152
sg35
I25
ssS'KOPPER MICHAEL J'
p153
(dp154
g3
I224305
sg4
g6
sg5
g6
sg7
I2652612
sg8
g18
sg19
I800000
sg20
I985032
sg21
g6
sg22
g6
sg23
I985032
sg24
I118134
sg25
g6
sg26
g6
sg27
I907502
sg28
g6
sg29
I01
sg30
g6
sg31
g6
sg32
I602671
sg33
S'michael.kopper@enron.com'
p155
sg35
g6
ssS'LEFF DANIEL P'
p156
(dp157
g3
I273746
sg4
I2822
sg5
g6
sg7
I2664228
sg8
g18
sg19
I1000000
sg20
I360528
sg21
I2672
sg22
g6
sg23
I360528
sg24
g6
sg25
g6
sg26
I63
sg27
I3083
sg28
I14
sg29
I00
sg30
g6
sg31
g6
sg32
I1387399
sg33
S'dan.leff@enron.com'
p158
sg35
I67
ssS'LAVORATO JOHN J'
p159
(dp160
g3
I339288
sg4
I7259
sg5
g6
sg7
I10425757
sg8
I4158995
sg19
I8000000
sg20
I1008149
sg21
I3962
sg22
g6
sg23
I5167144
sg24
I49537
sg25
g6
sg26
I2585
sg27
I1552
sg28
I411
sg29
I00
sg30
g6
sg31
g6
sg32
I2035380
sg33
S'john.lavorato@enron.com'
p161
sg35
I528
ssS'BERBERIAN DAVID'
p162
(dp163
g3
I216582
sg4
g6
sg5
g6
sg7
I228474
sg8
I1624396
sg19
g48
sg20
I869220
sg21
g6
sg22
g6
sg23
I2493616
sg24
I11892
sg25
g6
sg26
g6
sg27
g6
sg28
g6
sg29
I00
sg30
g6
sg31
g6
sg32
g6
sg33
S'david.berberian@enron.com'
p164
sg35
g6
ssS'DETMERING TIMOTHY J'
p165
(dp166
g3
I210500
sg4
g6
sg5
I875307
sg7
I1204583
sg8
I2027865
sg19
I425000
sg20
I315068
sg21
g6
sg22
I-315068
sg23
I2027865
sg24
I52255
sg25
g6
sg26
g6
sg27
I1105
sg28
g6
sg29
I00
sg30
g6
sg31
I-775241
sg32
I415657
sg33
S'timothy.detmering@enron.com'
p167
sg35
g6
ssS'WAKEHAM JOHN'
p168
(dp169
g3
g45
sg4
g6
sg5
g6
sg7
I213071
sg8
g18
sg19
g48
sg20
g6
sg21
g6
sg22
g6
sg23
g6
sg24
I103773
sg25
g6
sg26
g6
sg27
g6
sg28
g6
sg29
I00
sg30
I109298
sg31
g6
sg32
g6
sg33
g6
sg35
g6
ssS'POWERS WILLIAM'
p170
(dp171
g3
g45
sg4
I653
sg5
g6
sg7
g6
sg8
g18
sg19
g48
sg20
g6
sg21
I12
sg22
g6
sg23
g6
sg24
g6
sg25
g6
sg26
I26
sg27
g6
sg28
I0
sg29
I00
sg30
I17500
sg31
I-17500
sg32
g6
sg33
S'ken.powers@enron.com'
p172
sg35
I0
ssS'GOLD JOSEPH'
p173
(dp174
g3
I272880
sg4
g6
sg5
g6
sg7
I2146973
sg8
I436515
sg19
I750000
sg20
I441096
sg21
g6
sg22
g6
sg23
I877611
sg24
g6
sg25
g6
sg26
g6
sg27
I819288
sg28
g6
sg29
I00
sg30
g6
sg31
g6
sg32
I304805
sg33
S'joe.gold@enron.com'
p175
sg35
g6
ssS'BANNANTINE JAMES M'
p176
(dp177
g3
I477
sg4
I566
sg5
g6
sg7
I916197
sg8
I4046157
sg19
g48
sg20
I1757552
sg21
I465
sg22
I-560222
sg23
I5243487
sg24
I56301
sg25
g6
sg26
I29
sg27
I864523
sg28
I0
sg29
I00
sg30
g6
sg31
I-5104
sg32
g6
sg33
S'james.bannantine@enron.com'
p178
sg35
I39
ssS'DUNCAN JOHN H'
p179
(dp180
g3
g45
sg4
g6
sg5
g6
sg7
I77492
sg8
I371750
sg19
g48
sg20
g6
sg21
g6
sg22
g6
sg23
I371750
sg24
g6
sg25
g6
sg26
g6
sg27
g6
sg28
g6
sg29
I00
sg30
I102492
sg31
I-25000
sg32
g6
sg33
g6
sg35
g6
ssS'SHAPIRO RICHARD S'
p181
(dp182
g3
I269076
sg4
I15149
sg5
g6
sg7
I1057548
sg8
I607837
sg19
I650000
sg20
I379164
sg21
I4527
sg22
g6
sg23
I987001
sg24
I137767
sg25
g6
sg26
I1215
sg27
I705
sg28
I65
sg29
I00
sg30
g6
sg31
g6
sg32
g6
sg33
S'richard.shapiro@enron.com'
p183
sg35
I74
ssS'SHERRIFF JOHN R'
p184
(dp185
g3
I428780
sg4
I3187
sg5
g6
sg7
I4335388
sg8
I1835558
sg19
I1500000
sg20
I1293424
sg21
I2103
sg22
g6
sg23
I3128982
sg24
g6
sg25
g6
sg26
I92
sg27
I1852186
sg28
I23
sg29
I00
sg30
g6
sg31
g6
sg32
I554422
sg33
S'john.sherriff@enron.com'
p186
sg35
I28
ssS'SHELBY REX'
p187
(dp188
g3
I211844
sg4
I225
sg5
g6
sg7
I2003885
sg8
I1624396
sg19
I200000
sg20
I869220
sg21
I91
sg22
g6
sg23
I2493616
sg24
I22884
sg25
g6
sg26
I39
sg27
I1573324
sg28
I14
sg29
I01
sg30
g6
sg31
I-4167
sg32
g6
sg33
S'rex.shelby@enron.com'
p189
sg35
I13
ssS'LEMAISTRE CHARLES'
p190
(dp191
g3
g45
sg4
g6
sg5
g6
sg7
I87492
sg8
I412878
sg19
g48
sg20
g6
sg21
g6
sg22
g6
sg23
I412878
sg24
g6
sg25
g6
sg26
g6
sg27
g6
sg28
g6
sg29
I00
sg30
I112492
sg31
I-25000
sg32
g6
sg33
g6
sg35
g6
ssS'DEFFNER JOSEPH M'
p192
(dp193
g3
I206121
sg4
I714
sg5
g6
sg7
I1208649
sg8
I17378
sg19
I600000
sg20
I141833
sg21
I552
sg22
g6
sg23
I159211
sg24
I41626
sg25
g6
sg26
I74
sg27
I25553
sg28
I4
sg29
I00
sg30
g6
sg31
g6
sg32
I335349
sg33
S'joseph.deffner@enron.com'
p194
sg35
I115
ssS'KISHKILL JOSEPH G'
p195
(dp196
g3
I174246
sg4
g6
sg5
g6
sg7
I704896
sg8
g18
sg19
g48
sg20
I1034346
sg21
g6
sg22
g6
sg23
I1034346
sg24
I116335
sg25
g6
sg26
g6
sg27
I465357
sg28
g6
sg29
I00
sg30
g6
sg31
I-51042
sg32
g6
sg33
S'joe.kishkill@enron.com'
p197
sg35
g6
ssS'WHALLEY LAWRENCE G'
p198
(dp199
g3
I510364
sg4
I6019
sg5
g6
sg7
I4677574
sg8
I3282960
sg19
I3000000
sg20
I2796177
sg21
I3920
sg22
g6
sg23
I6079137
sg24
I57838
sg25
g6
sg26
I556
sg27
I301026
sg28
I24
sg29
I00
sg30
g6
sg31
g6
sg32
I808346
sg33
S'greg.whalley@enron.com'
p200
sg35
I186
ssS'MCCONNELL MICHAEL S'
p201
(dp202
g3
I365038
sg4
I3329
sg5
g6
sg7
I2101364
sg8
I1623010
sg19
I1100000
sg20
I1478269
sg21
I2189
sg22
g6
sg23
I3101279
sg24
I81364
sg25
g6
sg26
I2742
sg27
I540
sg28
I194
sg29
I00
sg30
g6
sg31
g6
sg32
I554422
sg33
S'mike.mcconnell@enron.com'
p203
sg35
I92
ssS'PIRO JIM'
p204
(dp205
g3
g45
sg4
I58
sg5
g6
sg7
g6
sg8
g18
sg19
g48
sg20
I47304
sg21
I3
sg22
g6
sg23
I47304
sg24
g6
sg25
g6
sg26
I16
sg27
g6
sg28
I1
sg29
I00
sg30
g6
sg31
g6
sg32
g6
sg33
S'jim.piro@enron.com'
p206
sg35
I0
ssS'DELAINEY DAVID W'
p207
(dp208
g3
I365163
sg4
I3093
sg5
g6
sg7
I4747979
sg8
I2291113
sg19
I3000000
sg20
I1323148
sg21
I2097
sg22
g6
sg23
I3614261
sg24
I86174
sg25
g6
sg26
I3069
sg27
I1661
sg28
I609
sg29
I01
sg30
g6
sg31
g6
sg32
I1294981
sg33
S'david.delainey@enron.com'
p209
sg35
I66
ssS'SULLIVAN-SHAKLOVITZ COLLEEN'
p210
(dp211
g3
I162779
sg4
g6
sg5
I181993
sg7
I999356
sg8
I1362375
sg19
I100000
sg20
g6
sg21
g6
sg22
g6
sg23
I1362375
sg24
g6
sg25
g6
sg26
g6
sg27
I162
sg28
g6
sg29
I00
sg30
g6
sg31
g6
sg32
I554422
sg33
g6
sg35
g6
ssS'WROBEL BRUCE'
p212
(dp213
g3
g45
sg4
g6
sg5
g6
sg7
g6
sg8
I139130
sg19
g48
sg20
g6
sg21
g6
sg22
g6
sg23
I139130
sg24
g6
sg25
g6
sg26
g6
sg27
g6
sg28
g6
sg29
I00
sg30
g6
sg31
g6
sg32
g6
sg33
g6
sg35
g6
ssS'LINDHOLM TOD A'
p214
(dp215
g3
I236457
sg4
g6
sg5
I204075
sg7
I875889
sg8
I2549361
sg19
I200000
sg20
I514847
sg21
g6
sg22
g6
sg23
I3064208
sg24
I57727
sg25
g6
sg26
g6
sg27
I2630
sg28
g6
sg29
I00
sg30
g6
sg31
g6
sg32
I175000
sg33
S'tod.lindholm@enron.com'
p216
sg35
g6
ssS'MEYER JEROME J'
p217
(dp218
g3
g45
sg4
g6
sg5
g6
sg7
I2151
sg8
g18
sg19
g48
sg20
g6
sg21
g6
sg22
g6
sg23
g6
sg24
I2151
sg25
g6
sg26
g6
sg27
g6
sg28
g6
sg29
I00
sg30
I38346
sg31
I-38346
sg32
g6
sg33
g6
sg35
g6
ssS'LAY KENNETH L'
p219
(dp220
g3
I1072321
sg4
I4273
sg5
I202911
sg7
I103559793
sg8
I34348384
sg19
I7000000
sg20
I14761694
sg21
I2411
sg22
g6
sg23
I49110078
sg24
I99832
sg25
I81525000
sg26
I36
sg27
I10359729
sg28
I16
sg29
I01
sg30
g6
sg31
I-300000
sg32
I3600000
sg33
S'kenneth.lay@enron.com'
p221
sg35
I123
ssS'BUTTS ROBERT H'
p222
(dp223
g3
I261516
sg4
g6
sg5
g6
sg7
I1271582
sg8
g18
sg19
I750000
sg20
I417619
sg21
g6
sg22
g6
sg23
I417619
sg24
I9410
sg25
g6
sg26
g6
sg27
I150656
sg28
g6
sg29
I00
sg30
g6
sg31
I-75000
sg32
I175000
sg33
S'bob.butts@enron.com'
p224
sg35
g6
ssS'OLSON CINDY K'
p225
(dp226
g3
I329078
sg4
I1184
sg5
I77716
sg7
I1321557
sg8
I1637034
sg19
I750000
sg20
I969729
sg21
I856
sg22
g6
sg23
I2606763
sg24
I63791
sg25
g6
sg26
I52
sg27
I972
sg28
I15
sg29
I00
sg30
g6
sg31
g6
sg32
I100000
sg33
S'cindy.olson@enron.com'
p227
sg35
I20
ssS'MCDONALD REBECCA'
p228
(dp229
g3
g45
sg4
I894
sg5
g6
sg7
g6
sg8
I757301
sg19
g48
sg20
I934065
sg21
I720
sg22
g6
sg23
I1691366
sg24
g6
sg25
g6
sg26
I13
sg27
g6
sg28
I1
sg29
I00
sg30
g6
sg31
g6
sg32
g6
sg33
S'rebecca.mcdonald@enron.com'
p230
sg35
I54
ssS'CUMBERLAND MICHAEL S'
p231
(dp232
g3
I184899
sg4
g6
sg5
g6
sg7
I807956
sg8
g18
sg19
I325000
sg20
I207940
sg21
g6
sg22
g6
sg23
I207940
sg24
I22344
sg25
g6
sg26
g6
sg27
I713
sg28
g6
sg29
I00
sg30
g6
sg31
g6
sg32
I275000
sg33
g6
sg35
g6
ssS'GAHN ROBERT S'
p233
(dp234
g3
I192008
sg4
g6
sg5
I73122
sg7
I900585
sg8
I83237
sg19
I509870
sg20
I235370
sg21
g6
sg22
g6
sg23
I318607
sg24
I50080
sg25
g6
sg26
g6
sg27
I76547
sg28
g6
sg29
I00
sg30
g6
sg31
I-1042
sg32
g6
sg33
g6
sg35
g6
ssS'MCCLELLAN GEORGE'
p235
(dp236
g3
I263413
sg4
I1744
sg5
g6
sg7
I1318763
sg8
I506765
sg19
I900000
sg20
I441096
sg21
I1469
sg22
g6
sg23
I947861
sg24
I228763
sg25
g6
sg26
I49
sg27
I51587
sg28
I0
sg29
I00
sg30
g6
sg31
I-125000
sg32
g6
sg33
S'george.mcclellan@enron.com'
p237
sg35
I52
ssS'HERMANN ROBERT J'
p238
(dp239
g3
I262663
sg4
g6
sg5
g6
sg7
I1297461
sg8
I187500
sg19
I700000
sg20
I480632
sg21
g6
sg22
g6
sg23
I668132
sg24
I48357
sg25
g6
sg26
g6
sg27
I416441
sg28
g6
sg29
I00
sg30
g6
sg31
I-280000
sg32
I150000
sg33
S'robert.hermann@enron.com'
p240
sg35
g6
ssS'SCRIMSHAW MATTHEW'
p241
(dp242
g3
g45
sg4
g6
sg5
g6
sg7
g6
sg8
I759557
sg19
g48
sg20
g6
sg21
g6
sg22
g6
sg23
I759557
sg24
g6
sg25
g6
sg26
g6
sg27
g6
sg28
g6
sg29
I00
sg30
g6
sg31
g6
sg32
g6
sg33
S'matthew.scrimshaw@enron.com'
p243
sg35
g6
ssS'GATHMANN WILLIAM D'
p244
(dp245
g3
g45
sg4
g6
sg5
g6
sg7
g6
sg8
I1753766
sg19
g48
sg20
I264013
sg21
g6
sg22
I-72419
sg23
I1945360
sg24
g6
sg25
g6
sg26
g6
sg27
g6
sg28
g6
sg29
I00
sg30
g6
sg31
g6
sg32
g6
sg33
g6
sg35
g6
ssS'HAEDICKE MARK E'
p246
(dp247
g3
I374125
sg4
I4009
sg5
I2157527
sg7
I3859065
sg8
I608750
sg19
I1150000
sg20
I524169
sg21
I1847
sg22
I-329825
sg23
I803094
sg24
I76169
sg25
g6
sg26
I1941
sg27
I52382
sg28
I61
sg29
I00
sg30
g6
sg31
I-934484
sg32
I983346
sg33
S'mark.haedicke@enron.com'
p248
sg35
I180
ssS'BOWEN JR RAYMOND M'
p249
(dp250
g3
I278601
sg4
I1858
sg5
g6
sg7
I2669589
sg8
g18
sg19
I1350000
sg20
I252055
sg21
I1593
sg22
g6
sg23
I252055
sg24
I65907
sg25
g6
sg26
I27
sg27
I1621
sg28
I15
sg29
I01
sg30
g6
sg31
I-833
sg32
I974293
sg33
S'raymond.bowen@enron.com'
p251
sg35
I140
ssS'GILLIS JOHN'
p252
(dp253
g3
g45
sg4
g6
sg5
g6
sg7
g6
sg8
I9803
sg19
g48
sg20
I75838
sg21
g6
sg22
g6
sg23
I85641
sg24
g6
sg25
g6
sg26
g6
sg27
g6
sg28
g6
sg29
I00
sg30
g6
sg31
g6
sg32
g6
sg33
g6
sg35
g6
ssS'FITZGERALD JAY L'
p254
(dp255
g3
I199157
sg4
I936
sg5
g6
sg7
I1414857
sg8
I664461
sg19
I350000
sg20
I956775
sg21
I723
sg22
g6
sg23
I1621236
sg24
I23870
sg25
g6
sg26
I16
sg27
I285414
sg28
I8
sg29
I00
sg30
g6
sg31
g6
sg32
I556416
sg33
S'jay.fitzgerald@enron.com'
p256
sg35
I1
ssS'MORAN MICHAEL P'
p257
(dp258
g3
g45
sg4
I672
sg5
g6
sg7
g6
sg8
I59539
sg19
g48
sg20
I161602
sg21
I127
sg22
g6
sg23
I221141
sg24
g6
sg25
g6
sg26
I19
sg27
g6
sg28
I0
sg29
I00
sg30
g6
sg31
g6
sg32
g6
sg33
S'michael.moran@enron.com'
p259
sg35
I0
ssS'REDMOND BRIAN L'
p260
(dp261
g3
I96840
sg4
I1671
sg5
g6
sg7
I111529
sg8
I7509039
sg19
g48
sg20
I381285
sg21
I1063
sg22
g6
sg23
I7890324
sg24
I14689
sg25
g6
sg26
I221
sg27
g6
sg28
I49
sg29
I00
sg30
g6
sg31
g6
sg32
g6
sg33
S'brian.redmond@enron.com'
p262
sg35
I204
ssS'BAZELIDES PHILIP J'
p263
(dp264
g3
I80818
sg4
g6
sg5
I684694
sg7
I860136
sg8
I1599641
sg19
g48
sg20
g6
sg21
g6
sg22
g6
sg23
I1599641
sg24
g6
sg25
g6
sg26
g6
sg27
I874
sg28
g6
sg29
I00
sg30
g6
sg31
g6
sg32
I93750
sg33
g6
sg35
g6
ssS'BELDEN TIMOTHY N'
p265
(dp266
g3
I213999
sg4
I7991
sg5
I2144013
sg7
I5501630
sg8
I953136
sg19
I5249999
sg20
I157569
sg21
I5521
sg22
g6
sg23
I1110705
sg24
I17355
sg25
g6
sg26
I484
sg27
I210698
sg28
I108
sg29
I01
sg30
g6
sg31
I-2334434
sg32
g6
sg33
S'tim.belden@enron.com'
p267
sg35
I228
ssS'DURAN WILLIAM D'
p268
(dp269
g3
I210692
sg4
I904
sg5
g6
sg7
I2093263
sg8
I1451869
sg19
I750000
sg20
I189041
sg21
I599
sg22
g6
sg23
I1640910
sg24
I25785
sg25
g6
sg26
I12
sg27
I1568
sg28
I3
sg29
I00
sg30
g6
sg31
g6
sg32
I1105218
sg33
S'w.duran@enron.com'
p270
sg35
I106
ssS'THORN TERENCE H'
p271
(dp272
g3
I222093
sg4
I266
sg5
I16586
sg7
I911453
sg8
I4452476
sg19
g48
sg20
I365320
sg21
I73
sg22
g6
sg23
I4817796
sg24
I46145
sg25
g6
sg26
I41
sg27
I426629
sg28
I0
sg29
I00
sg30
g6
sg31
g6
sg32
I200000
sg33
S'terence.thorn@enron.com'
p273
sg35
I0
ssS'FASTOW ANDREW S'
p274
(dp275
g3
I440698
sg4
g6
sg5
g6
sg7
I2424083
sg8
g18
sg19
I1300000
sg20
I1794412
sg21
g6
sg22
g6
sg23
I1794412
sg24
I55921
sg25
g6
sg26
g6
sg27
I277464
sg28
g6
sg29
I01
sg30
g6
sg31
I-1386055
sg32
I1736055
sg33
S'andrew.fastow@enron.com'
p276
sg35
g6
ssS'FOY JOE'
p277
(dp278
g3
g45
sg4
I57
sg5
I181755
sg7
I181755
sg8
I343434
sg19
g48
sg20
g6
sg21
I2
sg22
g6
sg23
I343434
sg24
g6
sg25
g6
sg26
I13
sg27
g6
sg28
I0
sg29
I00
sg30
g6
sg31
g6
sg32
g6
sg33
S'tracy.foy@enron.com'
p279
sg35
I0
ssS'CALGER CHRISTOPHER F'
p280
(dp281
g3
I240189
sg4
I2598
sg5
g6
sg7
I1639297
sg8
g18
sg19
I1250000
sg20
I126027
sg21
I2188
sg22
g6
sg23
I126027
sg24
I35818
sg25
g6
sg26
I144
sg27
I486
sg28
I25
sg29
I01
sg30
g6
sg31
I-262500
sg32
I375304
sg33
S'christopher.calger@enron.com'
p282
sg35
I199
ssS'RICE KENNETH D'
p283
(dp284
g3
I420636
sg4
I905
sg5
g6
sg7
I505050
sg8
I19794175
sg19
I1750000
sg20
I2748364
sg21
I864
sg22
g6
sg23
I22542539
sg24
I46950
sg25
g6
sg26
I18
sg27
I174839
sg28
I4
sg29
I01
sg30
g6
sg31
I-3504386
sg32
I1617011
sg33
S'ken.rice@enron.com'
p285
sg35
I42
ssS'KAMINSKI WINCENTY J'
p286
(dp287
g3
I275101
sg4
I4607
sg5
g6
sg7
I1086821
sg8
I850010
sg19
I400000
sg20
I126027
sg21
I583
sg22
g6
sg23
I976037
sg24
I83585
sg25
g6
sg26
I14368
sg27
I4669
sg28
I171
sg29
I00
sg30
g6
sg31
g6
sg32
I323466
sg33
S'vince.kaminski@enron.com'
p288
sg35
I41
ssS'LOCKHART EUGENE E'
p289
(dp290
g3
g45
sg4
g6
sg5
g6
sg7
g6
sg8
g18
sg19
g48
sg20
g6
sg21
g6
sg22
g6
sg23
g6
sg24
g6
sg25
g6
sg26
g6
sg27
g6
sg28
g6
sg29
I00
sg30
g6
sg31
g6
sg32
g6
sg33
g6
sg35
g6
ssS'COX DAVID'
p291
(dp292
g3
I314288
sg4
I102
sg5
g6
sg7
I1101393
sg8
I117551
sg19
I800000
sg20
I378082
sg21
I71
sg22
g6
sg23
I495633
sg24
I27861
sg25
g6
sg26
I33
sg27
I494
sg28
I4
sg29
I00
sg30
g6
sg31
I-41250
sg32
g6
sg33
S'chip.cox@enron.com'
p293
sg35
I0
ssS'OVERDYKE JR JERE C'
p294
(dp295
g3
I94941
sg4
g6
sg5
g6
sg7
I249787
sg8
I5266578
sg19
g48
sg20
I2041016
sg21
g6
sg22
g6
sg23
I7307594
sg24
I18834
sg25
g6
sg26
g6
sg27
I176
sg28
g6
sg29
I00
sg30
g6
sg31
g6
sg32
I135836
sg33
S'jere.overdyke@enron.com'
p296
sg35
g6
ssS'PEREIRA PAULO V. FERRAZ'
p297
(dp298
g3
g45
sg4
g6
sg5
g6
sg7
I27942
sg8
g18
sg19
g48
sg20
g6
sg21
g6
sg22
g6
sg23
g6
sg24
I27942
sg25
g6
sg26
g6
sg27
g6
sg28
g6
sg29
I00
sg30
I101250
sg31
I-101250
sg32
g6
sg33
g6
sg35
g6
ssS'STABLER FRANK'
p299
(dp300
g3
I239502
sg4
g6
sg5
g6
sg7
I1112087
sg8
g18
sg19
I500000
sg20
I511734
sg21
g6
sg22
g6
sg23
I511734
sg24
I16514
sg25
g6
sg26
g6
sg27
I356071
sg28
g6
sg29
I00
sg30
g6
sg31
g6
sg32
g6
sg33
S'frank.stabler@enron.com'
p301
sg35
g6
ssS'SKILLING JEFFREY K'
p302
(dp303
g3
I1111258
sg4
I3627
sg5
g6
sg7
I8682716
sg8
I19250000
sg19
I5600000
sg20
I6843672
sg21
I2042
sg22
g6
sg23
I26093672
sg24
I29336
sg25
g6
sg26
I108
sg27
I22122
sg28
I30
sg29
I01
sg30
g6
sg31
g6
sg32
I1920000
sg33
S'jeff.skilling@enron.com'
p304
sg35
I88
ssS'BLAKE JR. NORMAN P'
p305
(dp306
g3
g45
sg4
g6
sg5
g6
sg7
I1279
sg8
g18
sg19
g48
sg20
g6
sg21
g6
sg22
g6
sg23
g6
sg24
I1279
sg25
g6
sg26
g6
sg27
g6
sg28
g6
sg29
I00
sg30
I113784
sg31
I-113784
sg32
g6
sg33
g6
sg35
g6
ssS'SHERRICK JEFFREY B'
p307
(dp308
g3
g45
sg4
I613
sg5
g6
sg7
g6
sg8
I1426469
sg19
g48
sg20
I405999
sg21
I583
sg22
g6
sg23
I1832468
sg24
g6
sg25
g6
sg26
I25
sg27
g6
sg28
I18
sg29
I00
sg30
g6
sg31
g6
sg32
g6
sg33
S'jeffrey.sherrick@enron.com'
p309
sg35
I39
ssS'PRENTICE JAMES'
p310
(dp311
g3
g45
sg4
g6
sg5
I564348
sg7
I564348
sg8
I886231
sg19
g48
sg20
I208809
sg21
g6
sg22
g6
sg23
I1095040
sg24
g6
sg25
g6
sg26
g6
sg27
g6
sg28
g6
sg29
I00
sg30
g6
sg31
g6
sg32
g6
sg33
S'james.prentice@enron.com'
p312
sg35
g6
ssS'GRAY RODNEY'
p313
(dp314
g3
I6615
sg4
g6
sg5
I93585
sg7
I1146658
sg8
g18
sg19
g48
sg20
g6
sg21
g6
sg22
g6
sg23
g6
sg24
g6
sg25
g6
sg26
g6
sg27
I680833
sg28
g6
sg29
I00
sg30
g6
sg31
g6
sg32
I365625
sg33
g6
sg35
g6
ssS'PICKERING MARK R'
p315
(dp316
g3
I655037
sg4
I898
sg5
g6
sg7
I1386690
sg8
I28798
sg19
I300000
sg20
g6
sg21
I728
sg22
g6
sg23
I28798
sg24
I31653
sg25
I400000
sg26
I67
sg27
g6
sg28
I0
sg29
I00
sg30
g6
sg31
g6
sg32
g6
sg33
S'mark.pickering@enron.com'
p317
sg35
I7
ssS'NOLES JAMES L'
p318
(dp319
g3
g45
sg4
g6
sg5
I774401
sg7
I774401
sg8
g18
sg19
g48
sg20
I463261
sg21
g6
sg22
I-94556
sg23
I368705
sg24
g6
sg25
g6
sg26
g6
sg27
g6
sg28
g6
sg29
I00
sg30
g6
sg31
g6
sg32
g6
sg33
g6
sg35
g6
ssS'KEAN STEVEN J'
p320
(dp321
g3
I404338
sg4
I12754
sg5
g6
sg7
I1747522
sg8
I2022048
sg19
I1000000
sg20
I4131594
sg21
I3639
sg22
g6
sg23
I6153642
sg24
I41953
sg25
g6
sg26
I6759
sg27
I1231
sg28
I387
sg29
I00
sg30
g6
sg31
g6
sg32
I300000
sg33
S'steven.kean@enron.com'
p322
sg35
I140
ssS'FOWLER PEGGY'
p323
(dp324
g3
g45
sg4
I517
sg5
g6
sg7
g6
sg8
I1324578
sg19
g48
sg20
I560170
sg21
I10
sg22
g6
sg23
I1884748
sg24
g6
sg25
g6
sg26
I36
sg27
g6
sg28
I0
sg29
I00
sg30
g6
sg31
g6
sg32
g6
sg33
S'kulvinder.fowler@enron.com'
p325
sg35
I0
ssS'WASAFF GEORGE'
p326
(dp327
g3
I259996
sg4
I400
sg5
I831299
sg7
I1034395
sg8
I1668260
sg19
I325000
sg20
I388167
sg21
I337
sg22
g6
sg23
I2056427
sg24
g6
sg25
g6
sg26
I30
sg27
I1425
sg28
I7
sg29
I00
sg30
g6
sg31
I-583325
sg32
I200000
sg33
S'george.wasaff@enron.com'
p328
sg35
I22
ssS'WHITE JR THOMAS E'
p329
(dp330
g3
I317543
sg4
g6
sg5
g6
sg7
I1934359
sg8
I1297049
sg19
I450000
sg20
I13847074
sg21
g6
sg22
g6
sg23
I15144123
sg24
I81353
sg25
g6
sg26
g6
sg27
I1085463
sg28
g6
sg29
I00
sg30
g6
sg31
g6
sg32
g6
sg33
S'thomas.white@enron.com'
p331
sg35
g6
ssS'CHRISTODOULOU DIOMEDES'
p332
(dp333
g3
g45
sg4
g6
sg5
g6
sg7
g6
sg8
I5127155
sg19
g48
sg20
I950730
sg21
g6
sg22
g6
sg23
I6077885
sg24
g6
sg25
g6
sg26
g6
sg27
g6
sg28
g6
sg29
I00
sg30
g6
sg31
g6
sg32
g6
sg33
S'diomedes.christodoulou@enron.com'
p334
sg35
g6
ssS'ALLEN PHILLIP K'
p335
(dp336
g3
I201955
sg4
I2902
sg5
I2869717
sg7
I4484442
sg8
I1729541
sg19
I4175000
sg20
I126027
sg21
I1407
sg22
I-126027
sg23
I1729541
sg24
I13868
sg25
g6
sg26
I2195
sg27
I152
sg28
I65
sg29
I00
sg30
g6
sg31
I-3081055
sg32
I304805
sg33
S'phillip.allen@enron.com'
p337
sg35
I47
ssS'SHARP VICTORIA T'
p338
(dp339
g3
I248146
sg4
I3136
sg5
I187469
sg7
I1576511
sg8
I281073
sg19
I600000
sg20
I213063
sg21
I2477
sg22
g6
sg23
I494136
sg24
I116337
sg25
g6
sg26
I136
sg27
I2401
sg28
I6
sg29
I00
sg30
g6
sg31
g6
sg32
I422158
sg33
S'vicki.sharp@enron.com'
p340
sg35
I24
ssS'JAEDICKE ROBERT'
p341
(dp342
g3
g45
sg4
g6
sg5
g6
sg7
I83750
sg8
I431750
sg19
g48
sg20
I44093
sg21
g6
sg22
I-44093
sg23
I431750
sg24
g6
sg25
g6
sg26
g6
sg27
g6
sg28
g6
sg29
I00
sg30
I108750
sg31
I-25000
sg32
g6
sg33
g6
sg35
g6
ssS'WINOKUR JR. HERBERT S'
p343
(dp344
g3
g45
sg4
g6
sg5
g6
sg7
I84992
sg8
g18
sg19
g48
sg20
g6
sg21
g6
sg22
g6
sg23
g6
sg24
I1413
sg25
g6
sg26
g6
sg27
g6
sg28
g6
sg29
I00
sg30
I108579
sg31
I-25000
sg32
g6
sg33
g6
sg35
g6
ssS'BROWN MICHAEL'
p345
(dp346
g3
g45
sg4
I1486
sg5
g6
sg7
I49288
sg8
g18
sg19
g48
sg20
g6
sg21
I761
sg22
g6
sg23
g6
sg24
I49288
sg25
g6
sg26
I41
sg27
g6
sg28
I1
sg29
I00
sg30
g6
sg31
g6
sg32
g6
sg33
S'michael.brown@enron.com'
p347
sg35
I13
ssS'BADUM JAMES P'
p348
(dp349
g3
g45
sg4
g6
sg5
I178980
sg7
I182466
sg8
I257817
sg19
g48
sg20
g6
sg21
g6
sg22
g6
sg23
I257817
sg24
I3486
sg25
g6
sg26
g6
sg27
g6
sg28
g6
sg29
I00
sg30
g6
sg31
g6
sg32
g6
sg33
g6
sg35
g6
ssS'HUGHES JAMES A'
p350
(dp351
g3
g45
sg4
I719
sg5
g6
sg7
g6
sg8
I754966
sg19
g48
sg20
I363428
sg21
I589
sg22
g6
sg23
I1118394
sg24
g6
sg25
g6
sg26
I34
sg27
g6
sg28
I5
sg29
I00
sg30
g6
sg31
g6
sg32
g6
sg33
S'james.hughes@enron.com'
p352
sg35
I35
ssS'REYNOLDS LAWRENCE'
p353
(dp354
g3
I76399
sg4
g6
sg5
I51365
sg7
I394475
sg8
I4160672
sg19
I100000
sg20
I201483
sg21
g6
sg22
I-140264
sg23
I4221891
sg24
I8409
sg25
g6
sg26
g6
sg27
I202052
sg28
g6
sg29
I00
sg30
g6
sg31
I-200000
sg32
I156250
sg33
g6
sg35
g6
ssS'DIMICHELE RICHARD G'
p355
(dp356
g3
I262788
sg4
g6
sg5
g6
sg7
I2368151
sg8
I8191755
sg19
I1000000
sg20
I126027
sg21
g6
sg22
g6
sg23
I8317782
sg24
I35812
sg25
g6
sg26
g6
sg27
I374689
sg28
g6
sg29
I00
sg30
g6
sg31
g6
sg32
I694862
sg33
S'richard.dimichele@enron.com'
p357
sg35
g6
ssS'BHATNAGAR SANJAY'
p358
(dp359
g3
g45
sg4
I523
sg5
g6
sg7
I15456290
sg8
I2604490
sg19
g48
sg20
I-2604490
sg21
I463
sg22
I15456290
sS'total_stock_value'
p360
S'NaN'
p361
sg24
g6
sg25
g6
sg26
I29
sg27
I137864
sg28
I1
sg29
I00
sg30
I137864
sg31
g6
sg32
g6
sg33
S'sanjay.bhatnagar@enron.com'
p362
sg35
I0
ssS'CARTER REBECCA C'
p363
(dp364
g3
I261809
sg4
I312
sg5
g6
sg7
I477557
sg8
g18
sg19
I300000
sg20
I307301
sg21
I196
sg22
I-307301
sg23
g6
sg24
g6
sg25
g6
sg26
I15
sg27
I540
sg28
I7
sg29
I00
sg30
g6
sg31
I-159792
sg32
I75000
sg33
S'rebecca.carter@enron.com'
p365
sg35
I29
ssS'BUCHANAN HAROLD G'
p366
(dp367
g3
I248017
sg4
I1088
sg5
g6
sg7
I1054637
sg8
I825464
sg19
I500000
sg20
I189041
sg21
I23
sg22
g6
sg23
I1014505
sg24
I600
sg25
g6
sg26
I125
sg27
I1215
sg28
I0
sg29
I00
sg30
g6
sg31
g6
sg32
I304805
sg33
S'john.buchanan@enron.com'
p368
sg35
I0
ssS'YEAP SOON'
p369
(dp370
g3
g45
sg4
g6
sg5
g6
sg7
I55097
sg8
I192758
sg19
g48
sg20
g6
sg21
g6
sg22
g6
sg23
I192758
sg24
I55097
sg25
g6
sg26
g6
sg27
g6
sg28
g6
sg29
I00
sg30
g6
sg31
g6
sg32
g6
sg33
g6
sg35
g6
ssS'MURRAY JULIA H'
p371
(dp372
g3
I229284
sg4
I2192
sg5
g6
sg7
I812194
sg8
I400478
sg19
I400000
sg20
I196983
sg21
I395
sg22
g6
sg23
I597461
sg24
I57580
sg25
g6
sg26
I45
sg27
I330
sg28
I2
sg29
I00
sg30
g6
sg31
g6
sg32
I125000
sg33
S'julia.murray@enron.com'
p373
sg35
I11
ssS'GARLAND C KEVIN'
p374
(dp375
g3
I231946
sg4
I209
sg5
g6
sg7
I1566469
sg8
I636246
sg19
I850000
sg20
I259907
sg21
I178
sg22
g6
sg23
I896153
sg24
I48405
sg25
g6
sg26
I44
sg27
I60814
sg28
I27
sg29
I00
sg30
g6
sg31
g6
sg32
I375304
sg33
S'kevin.garland@enron.com'
p376
sg35
I10
ssS'DODSON KEITH'
p377
(dp378
g3
I221003
sg4
I176
sg5
g6
sg7
I319941
sg8
g18
sg19
I70000
sg20
g6
sg21
I114
sg22
g6
sg23
g6
sg24
I28164
sg25
g6
sg26
I14
sg27
I774
sg28
I3
sg29
I00
sg30
g6
sg31
g6
sg32
g6
sg33
S'keith.dodson@enron.com'
p379
sg35
I10
ssS'YEAGER F SCOTT'
p380
(dp381
g3
I158403
sg4
g6
sg5
g6
sg7
I360300
sg8
I8308552
sg19
g48
sg20
I3576206
sg21
g6
sg22
g6
sg23
I11884758
sg24
I53947
sg25
g6
sg26
g6
sg27
I147950
sg28
g6
sg29
I01
sg30
g6
sg31
g6
sg32
g6
sg33
S'scott.yeager@enron.com'
p382
sg35
g6
ssS'HIRKO JOSEPH'
p383
(dp384
g3
g45
sg4
g6
sg5
I10259
sg7
I91093
sg8
I30766064
sg19
g48
sg20
g6
sg21
g6
sg22
g6
sg23
I30766064
sg24
I77978
sg25
g6
sg26
g6
sg27
I2856
sg28
g6
sg29
I01
sg30
g6
sg31
g6
sg32
g6
sg33
S'joe.hirko@enron.com'
p385
sg35
g6
ssS'DIETRICH JANET R'
p386
(dp387
g3
I250100
sg4
I2572
sg5
g6
sg7
I1410464
sg8
I1550019
sg19
I600000
sg20
I315068
sg21
I1902
sg22
g6
sg23
I1865087
sg24
I3475
sg25
g6
sg26
I63
sg27
I473
sg28
I14
sg29
I00
sg30
g6
sg31
g6
sg32
I556416
sg33
S'janet.dietrich@enron.com'
p388
sg35
I305
ssS'DERRICK JR. JAMES V'
p389
(dp390
g3
I492375
sg4
I2181
sg5
g6
sg7
I550981
sg8
I8831913
sg19
I800000
sg20
I1787380
sg21
I1401
sg22
I-1787380
sg23
I8831913
sg24
I51124
sg25
g6
sg26
I909
sg27
I7482
sg28
I20
sg29
I00
sg30
g6
sg31
I-1284000
sg32
I484000
sg33
S'james.derrick@enron.com'
p391
sg35
I64
ssS'FREVERT MARK A'
p392
(dp393
g3
I1060932
sg4
I3275
sg5
I6426990
sg7
I17252530
sg8
I10433518
sg19
I2000000
sg20
I4188667
sg21
I2979
sg22
g6
sg23
I14622185
sg24
I86987
sg25
I2000000
sg26
I21
sg27
I7427621
sg28
I6
sg29
I00
sg30
g6
sg31
I-3367011
sg32
I1617011
sg33
S'mark.frevert@enron.com'
p394
sg35
I242
ssS'PAI LOU L'
p395
(dp396
g3
I261879
sg4
g6
sg5
g6
sg7
I3123383
sg8
I15364167
sg19
I1000000
sg20
I8453763
sg21
g6
sg22
g6
sg23
I23817930
sg24
I32047
sg25
g6
sg26
g6
sg27
I1829457
sg28
g6
sg29
I00
sg30
g6
sg31
g6
sg32
g6
sg33
S'lou.pai@enron.com'
p397
sg35
g6
ssS'BAY FRANKLIN R'
p398
(dp399
g3
I239671
sg4
g6
sg5
I260455
sg7
I827696
sg8
g18
sg19
I400000
sg20
I145796
sg21
g6
sg22
I-82782
sg23
I63014
sg24
I129142
sg25
g6
sg26
g6
sg27
I69
sg28
g6
sg29
I00
sg30
g6
sg31
I-201641
sg32
g6
sg33
S'frank.bay@enron.com'
p400
sg35
g6
ssS'HAYSLETT RODERICK J'
p401
(dp402
g3
g45
sg4
I2649
sg5
g6
sg7
g6
sg8
g18
sg19
g48
sg20
I346663
sg21
I571
sg22
g6
sg23
I346663
sg24
g6
sg25
g6
sg26
I1061
sg27
g6
sg28
I38
sg29
I00
sg30
g6
sg31
g6
sg32
g6
sg33
S'rod.hayslett@enron.com'
p403
sg35
I35
ssS'FUGH JOHN L'
p404
(dp405
g3
g45
sg4
g6
sg5
I50591
sg7
I50591
sg8
I176378
sg19
g48
sg20
g6
sg21
g6
sg22
g6
sg23
I176378
sg24
g6
sg25
g6
sg26
g6
sg27
g6
sg28
g6
sg29
I00
sg30
g6
sg31
g6
sg32
g6
sg33
g6
sg35
g6
ssS'FALLON JAMES B'
p406
(dp407
g3
I304588
sg4
I1755
sg5
g6
sg7
I3676340
sg8
I940257
sg19
I2500000
sg20
I1392142
sg21
I1604
sg22
g6
sg23
I2332399
sg24
I95924
sg25
g6
sg26
I75
sg27
I401481
sg28
I37
sg29
I00
sg30
g6
sg31
g6
sg32
I374347
sg33
S'jim.fallon@enron.com'
p408
sg35
I42
ssS'KOENIG MARK E'
p409
(dp410
g3
I309946
sg4
I2374
sg5
g6
sg7
I1587421
sg8
I671737
sg19
I700000
sg20
I1248318
sg21
I2271
sg22
g6
sg23
I1920055
sg24
I127017
sg25
g6
sg26
I61
sg27
I150458
sg28
I15
sg29
I01
sg30
g6
sg31
g6
sg32
I300000
sg33
S'mark.koenig@enron.com'
p411
sg35
I53
ssS'SAVAGE FRANK'
p412
(dp413
g3
g45
sg4
g6
sg5
g6
sg7
I3750
sg8
g18
sg19
g48
sg20
g6
sg21
g6
sg22
g6
sg23
g6
sg24
g6
sg25
g6
sg26
g6
sg27
g6
sg28
g6
sg29
I00
sg30
I125034
sg31
I-121284
sg32
g6
sg33
g6
sg35
g6
ssS'IZZO LAWRENCE L'
p414
(dp415
g3
I85274
sg4
I496
sg5
g6
sg7
I1979596
sg8
I2165172
sg19
g48
sg20
I3654808
sg21
I437
sg22
g6
sg23
I5819980
sg24
I28093
sg25
g6
sg26
I19
sg27
I1553729
sg28
I5
sg29
I00
sg30
g6
sg31
g6
sg32
I312500
sg33
S'larry.izzo@enron.com'
p416
sg35
I28
ssS'TILNEY ELIZABETH A'
p417
(dp418
g3
I247338
sg4
I460
sg5
g6
sg7
I399393
sg8
I591250
sg19
I300000
sg20
I576792
sg21
I379
sg22
g6
sg23
I1168042
sg24
g6
sg25
g6
sg26
I19
sg27
I152055
sg28
I11
sg29
I00
sg30
g6
sg31
I-575000
sg32
I275000
sg33
S'elizabeth.tilney@enron.com'
p419
sg35
I10
ssS'MARTIN AMANDA K'
p420
(dp421
g3
I349487
sg4
I1522
sg5
I85430
sg7
I8407016
sg8
I2070306
sg19
g48
sg20
g6
sg21
I477
sg22
g6
sg23
I2070306
sg24
I8211
sg25
g6
sg26
I230
sg27
I2818454
sg28
I0
sg29
I00
sg30
g6
sg31
g6
sg32
I5145434
sg33
S'a..martin@enron.com'
p422
sg35
I8
ssS'BUY RICHARD B'
p423
(dp424
g3
I330546
sg4
I3523
sg5
I649584
sg7
I2355702
sg8
I2542813
sg19
I900000
sg20
I901657
sg21
I2333
sg22
g6
sg23
I3444470
sg24
g6
sg25
g6
sg26
I1053
sg27
I400572
sg28
I71
sg29
I00
sg30
g6
sg31
I-694862
sg32
I769862
sg33
S'rick.buy@enron.com'
p425
sg35
I156
ssS'GRAMM WENDY L'
p426
(dp427
g3
g45
sg4
g6
sg5
g6
sg7
I119292
sg8
g18
sg19
g48
sg20
g6
sg21
g6
sg22
g6
sg23
g6
sg24
g6
sg25
g6
sg26
g6
sg27
g6
sg28
g6
sg29
I00
sg30
I119292
sg31
g6
sg32
g6
sg33
g6
sg35
g6
ssS'CAUSEY RICHARD A'
p428
(dp429
g3
I415189
sg4
I1892
sg5
g6
sg7
I1868758
sg8
g18
sg19
I1000000
sg20
I2502063
sg21
I1585
sg22
g6
sg23
I2502063
sg24
I30674
sg25
g6
sg26
I49
sg27
I307895
sg28
I12
sg29
I01
sg30
g6
sg31
I-235000
sg32
I350000
sg33
S'richard.causey@enron.com'
p430
sg35
I58
ssS'TAYLOR MITCHELL S'
p431
(dp432
g3
I265214
sg4
I533
sg5
I227449
sg7
I1092663
sg8
I3181250
sg19
I600000
sg20
I563798
sg21
I300
sg22
g6
sg23
I3745048
sg24
g6
sg25
g6
sg26
I29
sg27
g6
sg28
I0
sg29
I00
sg30
g6
sg31
g6
sg32
g6
sg33
S'mitchell.taylor@enron.com'
p433
sg35
I0
ssS'DONAHUE JR JEFFREY M'
p434
(dp435
g3
I278601
sg4
I865
sg5
g6
sg7
I875760
sg8
I765920
sg19
I800000
sg20
I315068
sg21
I772
sg22
g6
sg23
I1080988
sg24
I96268
sg25
g6
sg26
I22
sg27
I891
sg28
I11
sg29
I00
sg30
g6
sg31
I-300000
sg32
g6
sg33
S'jeff.donahue@enron.com'
p436
sg35
I188
ssS'GLISAN JR BEN F'
p437
(dp438
g3
I274975
sg4
I873
sg5
g6
sg7
I1272284
sg8
I384728
sg19
I600000
sg20
I393818
sg21
I874
sg22
g6
sg23
I778546
sg24
I125978
sg25
g6
sg26
I16
sg27
I200308
sg28
I6
sg29
I01
sg30
g6
sg31
g6
sg32
I71023
sg33
S'ben.glisan@enron.com'
p439
sg35
I52
ss.